target datalayout = "e-m:e-p270:32:32-p271:32:32-p272:64:64-i64:64-i128:128-f80:128-n8:16:32:64-S128"
target triple = "x86_64-unknown-linux-gnu"

%struct.btMaterialProperties = type { i32, ptr, i32, i32, i32, ptr, i32, i32 }
%class.btTriangleIndexVertexMaterialArray = type { %class.btTriangleIndexVertexArray.base, [4 x i8], %class.btAlignedObjectArray.0 }
%class.btTriangleIndexVertexArray.base = type <{ %class.btStridingMeshInterface, %class.btAlignedObjectArray, [2 x i32], i32, %class.btVector3, %class.btVector3 }>
%class.btStridingMeshInterface = type { ptr, %class.btVector3 }
%class.btAlignedObjectArray = type <{ %class.btAlignedAllocator, [3 x i8], i32, i32, [4 x i8], ptr, i8, [7 x i8] }>
%class.btAlignedAllocator = type { i8 }
%class.btVector3 = type { [4 x float] }
%class.btAlignedObjectArray.0 = type <{ %class.btAlignedAllocator.1, [3 x i8], i32, i32, [4 x i8], ptr, i8, [7 x i8] }>
%class.btAlignedAllocator.1 = type { i8 }

; Function Attrs: mustprogress nounwind uwtable
define linkonce_odr dso_local noundef nonnull align 8 dereferenceable(48) ptr @_ZN20btAlignedObjectArrayI20btMaterialPropertiesEixEi(ptr noundef nonnull align 8 dereferenceable(25) %this, i32 noundef %n) #1 comdat align 2 {
entry:
  %this.addr = alloca ptr, align 8
  %n.addr = alloca i32, align 4
  store ptr %this, ptr %this.addr, align 8
  store i32 %n, ptr %n.addr, align 4
  %this1 = load ptr, ptr %this.addr, align 8
  %m_data = getelementptr inbounds %class.btAlignedObjectArray.0, ptr %this1, i32 0, i32 5
  %0 = load ptr, ptr %m_data, align 8
  %1 = load i32, ptr %n.addr, align 4
  %idxprom = sext i32 %1 to i64
  %arrayidx = getelementptr inbounds %struct.btMaterialProperties, ptr %0, i64 %idxprom
  ret ptr %arrayidx
}

; Function Attrs: mustprogress uwtable
define dso_local void @_ZN34btTriangleIndexVertexMaterialArray29getLockedReadOnlyMaterialBaseEPPKhRiR14PHY_ScalarTypeS3_S2_S3_S3_S5_i(ptr noundef nonnull align 8 dereferenceable(136) %this, ptr noundef %materialBase, ptr noundef nonnull align 4 dereferenceable(4) %numMaterials, ptr noundef nonnull align 4 dereferenceable(4) %materialType, ptr noundef nonnull align 4 dereferenceable(4) %materialStride, ptr noundef %triangleMaterialBase, ptr noundef nonnull align 4 dereferenceable(4) %numTriangles, ptr noundef nonnull align 4 dereferenceable(4) %triangleMaterialStride, ptr noundef nonnull align 4 dereferenceable(4) %triangleType, i32 noundef %subpart) unnamed_addr #2 align 2 {
entry:
  %this.addr = alloca ptr, align 8
  %materialBase.addr = alloca ptr, align 8
  %numMaterials.addr = alloca ptr, align 8
  %materialType.addr = alloca ptr, align 8
  %materialStride.addr = alloca ptr, align 8
  %triangleMaterialBase.addr = alloca ptr, align 8
  %numTriangles.addr = alloca ptr, align 8
  %triangleMaterialStride.addr = alloca ptr, align 8
  %triangleType.addr = alloca ptr, align 8
  %subpart.addr = alloca i32, align 4
  %mats = alloca ptr, align 8
  store ptr %this, ptr %this.addr, align 8
  store ptr %materialBase, ptr %materialBase.addr, align 8
  store ptr %numMaterials, ptr %numMaterials.addr, align 8
  store ptr %materialType, ptr %materialType.addr, align 8
  store ptr %materialStride, ptr %materialStride.addr, align 8
  store ptr %triangleMaterialBase, ptr %triangleMaterialBase.addr, align 8
  store ptr %numTriangles, ptr %numTriangles.addr, align 8
  store ptr %triangleMaterialStride, ptr %triangleMaterialStride.addr, align 8
  store ptr %triangleType, ptr %triangleType.addr, align 8
  store i32 %subpart, ptr %subpart.addr, align 4
  %this1 = load ptr, ptr %this.addr, align 8
  %m_materials = getelementptr inbounds %class.btTriangleIndexVertexMaterialArray, ptr %this1, i32 0, i32 2
  %0 = load i32, ptr %subpart.addr, align 4
  %call = call noundef nonnull align 8 dereferenceable(48) ptr @_ZN20btAlignedObjectArrayI20btMaterialPropertiesEixEi(ptr noundef nonnull align 8 dereferenceable(25) %m_materials, i32 noundef %0)
  store ptr %call, ptr %mats, align 8
  %1 = load ptr, ptr %mats, align 8
  %m_numMaterials = getelementptr inbounds %struct.btMaterialProperties, ptr %1, i32 0, i32 0
  %2 = load i32, ptr %m_numMaterials, align 8
  %3 = load ptr, ptr %numMaterials.addr, align 8
  store i32 %2, ptr %3, align 4
  %4 = load ptr, ptr %mats, align 8
  %m_materialBase = getelementptr inbounds %struct.btMaterialProperties, ptr %4, i32 0, i32 1
  %5 = load ptr, ptr %m_materialBase, align 8
  %6 = load ptr, ptr %materialBase.addr, align 8
  store ptr %5, ptr %6, align 8
  %7 = load ptr, ptr %materialType.addr, align 8
  store i32 0, ptr %7, align 4
  %8 = load ptr, ptr %mats, align 8
  %m_materialStride = getelementptr inbounds %struct.btMaterialProperties, ptr %8, i32 0, i32 2
  %9 = load i32, ptr %m_materialStride, align 8
  %10 = load ptr, ptr %materialStride.addr, align 8
  store i32 %9, ptr %10, align 4
  %11 = load ptr, ptr %mats, align 8
  %m_numTriangles = getelementptr inbounds %struct.btMaterialProperties, ptr %11, i32 0, i32 4
  %12 = load i32, ptr %m_numTriangles, align 8
  %13 = load ptr, ptr %numTriangles.addr, align 8
  store i32 %12, ptr %13, align 4
  %14 = load ptr, ptr %mats, align 8
  %m_triangleMaterialsBase = getelementptr inbounds %struct.btMaterialProperties, ptr %14, i32 0, i32 5
  %15 = load ptr, ptr %m_triangleMaterialsBase, align 8
  %16 = load ptr, ptr %triangleMaterialBase.addr, align 8
  store ptr %15, ptr %16, align 8
  %17 = load ptr, ptr %mats, align 8
  %m_triangleMaterialStride = getelementptr inbounds %struct.btMaterialProperties, ptr %17, i32 0, i32 6
  %18 = load i32, ptr %m_triangleMaterialStride, align 8
  %19 = load ptr, ptr %triangleMaterialStride.addr, align 8
  store i32 %18, ptr %19, align 4
  %20 = load ptr, ptr %mats, align 8
  %m_triangleType = getelementptr inbounds %struct.btMaterialProperties, ptr %20, i32 0, i32 7
  %21 = load i32, ptr %m_triangleType, align 4
  %22 = load ptr, ptr %triangleType.addr, align 8
  store i32 %21, ptr %22, align 4
  ret void
}