; Function Attrs: mustprogress nofree norecurse nosync nounwind willreturn memory(read, argmem: readwrite, inaccessiblemem: none) uwtable
define dso_local void @_ZN34btTriangleIndexVertexMaterialArray29getLockedReadOnlyMaterialBaseEPPKhRiR14PHY_ScalarTypeS3_S2_S3_S3_S5_i(ptr nocapture noundef nonnull readonly align 8 dereferenceable(136) %this, ptr nocapture noundef writeonly %materialBase, ptr nocapture noundef nonnull writeonly align 4 dereferenceable(4) %numMaterials, ptr nocapture noundef nonnull writeonly align 4 dereferenceable(4) %materialType, ptr nocapture noundef nonnull writeonly align 4 dereferenceable(4) %materialStride, ptr nocapture noundef writeonly %triangleMaterialBase, ptr nocapture noundef nonnull writeonly align 4 dereferenceable(4) %numTriangles, ptr nocapture noundef nonnull writeonly align 4 dereferenceable(4) %triangleMaterialStride, ptr nocapture noundef nonnull writeonly align 4 dereferenceable(4) %triangleType, i32 noundef %subpart) unnamed_addr #4 align 2 {
entry:
  %m_data.i = getelementptr inbounds i8, ptr %this, i64 120
  %0 = load ptr, ptr %m_data.i, align 8
  %idxprom.i = sext i32 %subpart to i64
  %arrayidx.i = getelementptr inbounds %struct.btMaterialProperties, ptr %0, i64 %idxprom.i
  %1 = load i32, ptr %arrayidx.i, align 8
  store i32 %1, ptr %numMaterials, align 4
  %m_materialBase = getelementptr inbounds i8, ptr %arrayidx.i, i64 8
  %2 = load ptr, ptr %m_materialBase, align 8
  store ptr %2, ptr %materialBase, align 8
  store i32 0, ptr %materialType, align 4
  %m_materialStride = getelementptr inbounds i8, ptr %arrayidx.i, i64 16
  %3 = load i32, ptr %m_materialStride, align 8
  store i32 %3, ptr %materialStride, align 4
  %m_numTriangles = getelementptr inbounds i8, ptr %arrayidx.i, i64 24
  %4 = load i32, ptr %m_numTriangles, align 8
  store i32 %4, ptr %numTriangles, align 4
  %m_triangleMaterialsBase = getelementptr inbounds i8, ptr %arrayidx.i, i64 32
  %5 = load ptr, ptr %m_triangleMaterialsBase, align 8
  store ptr %5, ptr %triangleMaterialBase, align 8
  %m_triangleMaterialStride = getelementptr inbounds i8, ptr %arrayidx.i, i64 40
  %6 = load i32, ptr %m_triangleMaterialStride, align 8
  store i32 %6, ptr %triangleMaterialStride, align 4
  %m_triangleType = getelementptr inbounds i8, ptr %arrayidx.i, i64 44
  %7 = load i32, ptr %m_triangleType, align 4
  store i32 %7, ptr %triangleType, align 4
  ret void
}